target datalayout = "e-m:e-p270:32:32-p271:32:32-p272:64:64-i64:64-i128:128-f80:128-n8:16:32:64-S128"
target triple = "x86_64-pc-linux-gnu"

; Function Attrs: nounwind uwtable
define internal void @mix8to2_double(ptr noundef %0, ptr noundef %1, ptr noundef %2, i32 noundef %3) #0 {
  %5 = alloca ptr, align 8
  %6 = alloca ptr, align 8
  %7 = alloca ptr, align 8
  %8 = alloca i32, align 4
  %9 = alloca i32, align 4
  %10 = alloca double, align 8
  store ptr %0, ptr %5, align 8, !tbaa !131
  store ptr %1, ptr %6, align 8, !tbaa !131
  store ptr %2, ptr %7, align 8, !tbaa !9
  store i32 %3, ptr %8, align 4, !tbaa !11
  call void @llvm.lifetime.start.p0(i64 4, ptr %9) #9
  store i32 0, ptr %9, align 4, !tbaa !11
  br label %11

11:                                               ; preds = %118, %4
  %12 = load i32, ptr %9, align 4, !tbaa !11
  %13 = load i32, ptr %8, align 4, !tbaa !11
  %14 = icmp slt i32 %12, %13
  br i1 %14, label %15, label %121

15:                                               ; preds = %11
  call void @llvm.lifetime.start.p0(i64 8, ptr %10) #9
  %16 = load ptr, ptr %6, align 8, !tbaa !131
  %17 = getelementptr inbounds ptr, ptr %16, i64 2
  %18 = load ptr, ptr %17, align 8, !tbaa !9
  %19 = load i32, ptr %9, align 4, !tbaa !11
  %20 = sext i32 %19 to i64
  %21 = getelementptr inbounds double, ptr %18, i64 %20
  %22 = load double, ptr %21, align 8, !tbaa !29
  %23 = load ptr, ptr %7, align 8, !tbaa !9
  %24 = getelementptr inbounds double, ptr %23, i64 2
  %25 = load double, ptr %24, align 8, !tbaa !29
  %26 = load ptr, ptr %6, align 8, !tbaa !131
  %27 = getelementptr inbounds ptr, ptr %26, i64 3
  %28 = load ptr, ptr %27, align 8, !tbaa !9
  %29 = load i32, ptr %9, align 4, !tbaa !11
  %30 = sext i32 %29 to i64
  %31 = getelementptr inbounds double, ptr %28, i64 %30
  %32 = load double, ptr %31, align 8, !tbaa !29
  %33 = load ptr, ptr %7, align 8, !tbaa !9
  %34 = getelementptr inbounds double, ptr %33, i64 3
  %35 = load double, ptr %34, align 8, !tbaa !29
  %36 = fmul nsz double %32, %35
  %37 = call nsz double @llvm.fmuladd.f64(double %22, double %25, double %36)
  store double %37, ptr %10, align 8, !tbaa !29
  %38 = load double, ptr %10, align 8, !tbaa !29
  %39 = load ptr, ptr %6, align 8, !tbaa !131
  %40 = getelementptr inbounds ptr, ptr %39, i64 0
  %41 = load ptr, ptr %40, align 8, !tbaa !9
  %42 = load i32, ptr %9, align 4, !tbaa !11
  %43 = sext i32 %42 to i64
  %44 = getelementptr inbounds double, ptr %41, i64 %43
  %45 = load double, ptr %44, align 8, !tbaa !29
  %46 = load ptr, ptr %7, align 8, !tbaa !9
  %47 = getelementptr inbounds double, ptr %46, i64 0
  %48 = load double, ptr %47, align 8, !tbaa !29
  %49 = call nsz double @llvm.fmuladd.f64(double %45, double %48, double %38)
  %50 = load ptr, ptr %6, align 8, !tbaa !131
  %51 = getelementptr inbounds ptr, ptr %50, i64 4
  %52 = load ptr, ptr %51, align 8, !tbaa !9
  %53 = load i32, ptr %9, align 4, !tbaa !11
  %54 = sext i32 %53 to i64
  %55 = getelementptr inbounds double, ptr %52, i64 %54
  %56 = load double, ptr %55, align 8, !tbaa !29
  %57 = load ptr, ptr %7, align 8, !tbaa !9
  %58 = getelementptr inbounds double, ptr %57, i64 4
  %59 = load double, ptr %58, align 8, !tbaa !29
  %60 = call nsz double @llvm.fmuladd.f64(double %56, double %59, double %49)
  %61 = load ptr, ptr %6, align 8, !tbaa !131
  %62 = getelementptr inbounds ptr, ptr %61, i64 6
  %63 = load ptr, ptr %62, align 8, !tbaa !9
  %64 = load i32, ptr %9, align 4, !tbaa !11
  %65 = sext i32 %64 to i64
  %66 = getelementptr inbounds double, ptr %63, i64 %65
  %67 = load double, ptr %66, align 8, !tbaa !29
  %68 = load ptr, ptr %7, align 8, !tbaa !9
  %69 = getelementptr inbounds double, ptr %68, i64 6
  %70 = load double, ptr %69, align 8, !tbaa !29
  %71 = call nsz double @llvm.fmuladd.f64(double %67, double %70, double %60)
  %72 = load ptr, ptr %5, align 8, !tbaa !131
  %73 = getelementptr inbounds ptr, ptr %72, i64 0
  %74 = load ptr, ptr %73, align 8, !tbaa !9
  %75 = load i32, ptr %9, align 4, !tbaa !11
  %76 = sext i32 %75 to i64
  %77 = getelementptr inbounds double, ptr %74, i64 %76
  store double %71, ptr %77, align 8, !tbaa !29
  %78 = load double, ptr %10, align 8, !tbaa !29
  %79 = load ptr, ptr %6, align 8, !tbaa !131
  %80 = getelementptr inbounds ptr, ptr %79, i64 1
  %81 = load ptr, ptr %80, align 8, !tbaa !9
  %82 = load i32, ptr %9, align 4, !tbaa !11
  %83 = sext i32 %82 to i64
  %84 = getelementptr inbounds double, ptr %81, i64 %83
  %85 = load double, ptr %84, align 8, !tbaa !29
  %86 = load ptr, ptr %7, align 8, !tbaa !9
  %87 = getelementptr inbounds double, ptr %86, i64 9
  %88 = load double, ptr %87, align 8, !tbaa !29
  %89 = call nsz double @llvm.fmuladd.f64(double %85, double %88, double %78)
  %90 = load ptr, ptr %6, align 8, !tbaa !131
  %91 = getelementptr inbounds ptr, ptr %90, i64 5
  %92 = load ptr, ptr %91, align 8, !tbaa !9
  %93 = load i32, ptr %9, align 4, !tbaa !11
  %94 = sext i32 %93 to i64
  %95 = getelementptr inbounds double, ptr %92, i64 %94
  %96 = load double, ptr %95, align 8, !tbaa !29
  %97 = load ptr, ptr %7, align 8, !tbaa !9
  %98 = getelementptr inbounds double, ptr %97, i64 13
  %99 = load double, ptr %98, align 8, !tbaa !29
  %100 = call nsz double @llvm.fmuladd.f64(double %96, double %99, double %89)
  %101 = load ptr, ptr %6, align 8, !tbaa !131
  %102 = getelementptr inbounds ptr, ptr %101, i64 7
  %103 = load ptr, ptr %102, align 8, !tbaa !9
  %104 = load i32, ptr %9, align 4, !tbaa !11
  %105 = sext i32 %104 to i64
  %106 = getelementptr inbounds double, ptr %103, i64 %105
  %107 = load double, ptr %106, align 8, !tbaa !29
  %108 = load ptr, ptr %7, align 8, !tbaa !9
  %109 = getelementptr inbounds double, ptr %108, i64 15
  %110 = load double, ptr %109, align 8, !tbaa !29
  %111 = call nsz double @llvm.fmuladd.f64(double %107, double %110, double %100)
  %112 = load ptr, ptr %5, align 8, !tbaa !131
  %113 = getelementptr inbounds ptr, ptr %112, i64 1
  %114 = load ptr, ptr %113, align 8, !tbaa !9
  %115 = load i32, ptr %9, align 4, !tbaa !11
  %116 = sext i32 %115 to i64
  %117 = getelementptr inbounds double, ptr %114, i64 %116
  store double %111, ptr %117, align 8, !tbaa !29
  call void @llvm.lifetime.end.p0(i64 8, ptr %10) #9
  br label %118

118:                                              ; preds = %15
  %119 = load i32, ptr %9, align 4, !tbaa !11
  %120 = add nsw i32 %119, 1
  store i32 %120, ptr %9, align 4, !tbaa !11
  br label %11, !llvm.loop !134

121:                                              ; preds = %11
  call void @llvm.lifetime.end.p0(i64 4, ptr %9) #9
  ret void
}