; Function Attrs: nofree norecurse nosync nounwind memory(readwrite, inaccessiblemem: none) uwtable
define internal void @mix8to2_double(ptr noundef readonly captures(none) %0, ptr noundef readonly captures(none) %1, ptr noundef readonly captures(none) %2, i32 noundef %3) #9 {
  %5 = icmp sgt i32 %3, 0
  br i1 %5, label %.lr.ph, label %._crit_edge

.lr.ph:                                           ; preds = %4
  %6 = getelementptr inbounds nuw i8, ptr %1, i64 16
  %7 = load ptr, ptr %6, align 8, !tbaa !115
  %8 = getelementptr inbounds nuw i8, ptr %2, i64 16
  %9 = getelementptr inbounds nuw i8, ptr %1, i64 24
  %10 = load ptr, ptr %9, align 8, !tbaa !115
  %11 = getelementptr inbounds nuw i8, ptr %2, i64 24
  %12 = load ptr, ptr %1, align 8, !tbaa !115
  %13 = getelementptr inbounds nuw i8, ptr %1, i64 32
  %14 = load ptr, ptr %13, align 8, !tbaa !115
  %15 = getelementptr inbounds nuw i8, ptr %2, i64 32
  %16 = getelementptr inbounds nuw i8, ptr %1, i64 48
  %17 = load ptr, ptr %16, align 8, !tbaa !115
  %18 = getelementptr inbounds nuw i8, ptr %2, i64 48
  %19 = load ptr, ptr %0, align 8, !tbaa !115
  %20 = getelementptr inbounds nuw i8, ptr %1, i64 8
  %21 = load ptr, ptr %20, align 8, !tbaa !115
  %22 = getelementptr inbounds nuw i8, ptr %2, i64 72
  %23 = getelementptr inbounds nuw i8, ptr %1, i64 40
  %24 = load ptr, ptr %23, align 8, !tbaa !115
  %25 = getelementptr inbounds nuw i8, ptr %2, i64 104
  %26 = getelementptr inbounds nuw i8, ptr %1, i64 56
  %27 = load ptr, ptr %26, align 8, !tbaa !115
  %28 = getelementptr inbounds nuw i8, ptr %2, i64 120
  %29 = getelementptr inbounds nuw i8, ptr %0, i64 8
  %30 = load ptr, ptr %29, align 8, !tbaa !115
  %wide.trip.count = zext nneg i32 %3 to i64
  br label %31

31:                                               ; preds = %.lr.ph, %31
  %indvars.iv = phi i64 [ 0, %.lr.ph ], [ %indvars.iv.next, %31 ]
  %32 = getelementptr inbounds nuw double, ptr %7, i64 %indvars.iv
  %33 = load double, ptr %32, align 8, !tbaa !24
  %34 = load double, ptr %8, align 8, !tbaa !24
  %35 = getelementptr inbounds nuw double, ptr %10, i64 %indvars.iv
  %36 = load double, ptr %35, align 8, !tbaa !24
  %37 = load double, ptr %11, align 8, !tbaa !24
  %38 = fmul nsz double %36, %37
  %39 = tail call nsz double @llvm.fmuladd.f64(double %33, double %34, double %38)
  %40 = getelementptr inbounds nuw double, ptr %12, i64 %indvars.iv
  %41 = load double, ptr %40, align 8, !tbaa !24
  %42 = load double, ptr %2, align 8, !tbaa !24
  %43 = tail call nsz double @llvm.fmuladd.f64(double %41, double %42, double %39)
  %44 = getelementptr inbounds nuw double, ptr %14, i64 %indvars.iv
  %45 = load double, ptr %44, align 8, !tbaa !24
  %46 = load double, ptr %15, align 8, !tbaa !24
  %47 = tail call nsz double @llvm.fmuladd.f64(double %45, double %46, double %43)
  %48 = getelementptr inbounds nuw double, ptr %17, i64 %indvars.iv
  %49 = load double, ptr %48, align 8, !tbaa !24
  %50 = load double, ptr %18, align 8, !tbaa !24
  %51 = tail call nsz double @llvm.fmuladd.f64(double %49, double %50, double %47)
  %52 = getelementptr inbounds nuw double, ptr %19, i64 %indvars.iv
  store double %51, ptr %52, align 8, !tbaa !24
  %53 = getelementptr inbounds nuw double, ptr %21, i64 %indvars.iv
  %54 = load double, ptr %53, align 8, !tbaa !24
  %55 = load double, ptr %22, align 8, !tbaa !24
  %56 = tail call nsz double @llvm.fmuladd.f64(double %54, double %55, double %39)
  %57 = getelementptr inbounds nuw double, ptr %24, i64 %indvars.iv
  %58 = load double, ptr %57, align 8, !tbaa !24
  %59 = load double, ptr %25, align 8, !tbaa !24
  %60 = tail call nsz double @llvm.fmuladd.f64(double %58, double %59, double %56)
  %61 = getelementptr inbounds nuw double, ptr %27, i64 %indvars.iv
  %62 = load double, ptr %61, align 8, !tbaa !24
  %63 = load double, ptr %28, align 8, !tbaa !24
  %64 = tail call nsz double @llvm.fmuladd.f64(double %62, double %63, double %60)
  %65 = getelementptr inbounds nuw double, ptr %30, i64 %indvars.iv
  store double %64, ptr %65, align 8, !tbaa !24
  %indvars.iv.next = add nuw nsw i64 %indvars.iv, 1
  %exitcond.not = icmp eq i64 %indvars.iv.next, %wide.trip.count
  br i1 %exitcond.not, label %._crit_edge, label %31, !llvm.loop !118

._crit_edge:                                      ; preds = %31, %4
  ret void
}